Certificate:
    Data:
        Version: 3 (0x2)
        Serial Number: 1 (0x1)
        Signature Algorithm: sha256WithRSAEncryption
        Issuer: C=CN, ST=Beijing, L=Beijing, O=liasica Ltd, OU=liasica, CN=liasica.com/emailAddress=magicrolan@qq.com
        Validity
            Not Before: Feb 20 04:43:14 2017 GMT
            Not After : Feb 18 04:43:14 2027 GMT
        Subject: C=CN, ST=Beijing, O=liasica Ltd, OU=liasica, CN=liasica.com/emailAddress=magicrolan@qq.com
        Subject Public Key Info:
            Public Key Algorithm: rsaEncryption
            RSA Public Key: (2048 bit)
                Modulus (2048 bit):
                    00:b7:02:73:3e:38:40:9c:aa:68:06:61:3d:bf:ea:
                    34:36:09:8b:6e:16:ef:b3:19:cc:5b:d8:c9:59:7c:
                    f0:70:85:73:bb:37:12:1c:d3:52:10:50:e9:33:f5:
                    79:a4:5c:f8:12:cc:c2:40:c4:bc:b7:42:2e:cc:5a:
                    12:99:a6:6a:8e:8c:ac:3c:e5:46:60:6d:5e:4c:50:
                    36:11:e4:99:d6:75:68:01:6e:d9:88:d7:8f:b8:c3:
                    bf:a4:77:0c:1b:59:80:a1:ce:c3:ea:7e:6b:1b:27:
                    2f:bf:2e:14:fb:e7:37:03:5b:c3:67:b2:f1:ca:b7:
                    4e:0c:5a:b5:72:9c:a2:c1:04:07:53:06:14:52:05:
                    8e:35:16:43:b0:d5:6c:94:32:24:99:56:c6:29:57:
                    7e:af:20:2e:94:e0:e8:7c:e8:81:8b:b0:f5:2d:f3:
                    1a:96:43:d3:8f:6c:b9:ee:19:01:f1:1f:d6:3d:74:
                    de:c5:f4:c3:11:28:d7:f4:70:9a:77:5c:fd:f7:ae:
                    c3:15:62:d2:83:5d:43:37:f3:95:c8:9e:08:79:d1:
                    36:1d:fa:18:ff:37:7d:51:70:48:1e:2c:84:f2:61:
                    d3:60:40:cf:98:67:d9:a0:00:95:66:fa:14:b0:42:
                    0b:15:cc:24:13:69:7b:86:db:91:cb:de:fb:77:78:
                    2a:0f
                Exponent: 65537 (0x10001)
        X509v3 extensions:
            X509v3 Basic Constraints: 
                CA:FALSE
            X509v3 Key Usage: 
                Digital Signature, Non Repudiation, Key Encipherment
            X509v3 Subject Alternative Name: 
                DNS:liasica.com, DNS:www.liasica.com, DNS:hfebilling.liasica.com, DNS:v2.com, DNS:mipay.com, DNS:kingkongsa.com, DNS:qbd.com, DNS:zhiyu.com, DNS:qypencilnews.com, DNS:wenchang.com, DNS:gouyingda.com, DNS:tpshop.com, DNS:ugshop.hwdit.com, DNS:drupal.io, DNS:oa.com, DNS:oa.api.pencilnews.cn, DNS:mail.cn, DNS:train.com, DNS:bsb.liasica.com, DNS:api.pencilnews.cn, DNS:zytq.com, DNS:ugshop.hwdit.com, DNS:drupal.in
    Signature Algorithm: sha256WithRSAEncryption
        45:c3:e8:93:d9:54:21:da:10:c0:68:14:75:ab:ce:97:fc:01:
        91:d9:db:f1:38:f3:b9:61:76:27:43:f5:11:f6:0e:e2:b1:80:
        dc:f7:97:3b:67:a8:48:1a:05:4b:13:51:96:ee:de:ea:78:77:
        90:9e:e1:e8:9d:d2:7a:14:d8:f3:72:41:c4:e0:7a:e3:4a:23:
        ef:ba:f9:ab:45:fd:aa:81:d1:f7:75:8a:fb:7c:f7:df:1a:8e:
        f5:15:02:71:39:22:4a:c0:9a:f9:b1:56:9a:ec:db:45:12:e2:
        81:c4:0a:7a:73:8c:ee:34:40:d8:10:76:31:48:7e:52:68:8f:
        a2:24:f9:b3:02:81:c5:08:d2:ea:ae:70:d0:33:fd:1d:3b:6d:
        ff:a7:f3:ca:a5:98:94:ba:04:81:75:3f:39:05:e8:16:67:47:
        90:6e:7c:61:53:2f:6d:01:3b:77:ae:1f:aa:85:9f:26:6d:d1:
        15:8d:a8:ae:40:49:7c:d9:94:de:1c:42:6a:c7:f3:12:ac:99:
        70:1a:a0:35:8a:e4:ed:0f:38:15:17:40:8c:6f:d3:8e:42:df:
        5b:c9:b8:79:fe:c3:6b:2b:9c:1a:35:9b:2f:fc:a2:45:f7:a2:
        c3:93:bd:c6:6b:6d:0c:ff:95:ba:8c:82:06:47:a6:d1:3f:c3:
        62:ca:b2:fe
-----BEGIN CERTIFICATE-----
MIIE/TCCA+WgAwIBAgIBATANBgkqhkiG9w0BAQsFADCBkTELMAkGA1UEBhMCQ04x
EDAOBgNVBAgMB0JlaWppbmcxEDAOBgNVBAcMB0JlaWppbmcxFDASBgNVBAoMC2xp
YXNpY2EgTHRkMRAwDgYDVQQLDAdsaWFzaWNhMRQwEgYDVQQDDAtsaWFzaWNhLmNv
bTEgMB4GCSqGSIb3DQEJARYRbWFnaWNyb2xhbkBxcS5jb20wHhcNMTcwMjIwMDQ0
MzE0WhcNMjcwMjE4MDQ0MzE0WjB/MQswCQYDVQQGEwJDTjEQMA4GA1UECAwHQmVp
amluZzEUMBIGA1UECgwLbGlhc2ljYSBMdGQxEDAOBgNVBAsMB2xpYXNpY2ExFDAS
BgNVBAMMC2xpYXNpY2EuY29tMSAwHgYJKoZIhvcNAQkBFhFtYWdpY3JvbGFuQHFx
LmNvbTCCASIwDQYJKoZIhvcNAQEBBQADggEPADCCAQoCggEBALcCcz44QJyqaAZh
Pb/qNDYJi24W77MZzFvYyVl88HCFc7s3EhzTUhBQ6TP1eaRc+BLMwkDEvLdCLsxa
Epmmao6MrDzlRmBtXkxQNhHkmdZ1aAFu2YjXj7jDv6R3DBtZgKHOw+p+axsnL78u
FPvnNwNbw2ey8cq3TgxatXKcosEEB1MGFFIFjjUWQ7DVbJQyJJlWxilXfq8gLpTg
6HzogYuw9S3zGpZD049sue4ZAfEf1j103sX0wxEo1/Rwmndc/feuwxVi0oNdQzfz
lcieCHnRNh36GP83fVFwSB4shPJh02BAz5hn2aAAlWb6FLBCCxXMJBNpe4bbkcve
+3d4Kg8CAwEAAaOCAW8wggFrMAkGA1UdEwQCMAAwCwYDVR0PBAQDAgXgMIIBTwYD
VR0RBIIBRjCCAUKCC2xpYXNpY2EuY29tgg93d3cubGlhc2ljYS5jb22CFmhmZWJp
bGxpbmcubGlhc2ljYS5jb22CBnYyLmNvbYIJbWlwYXkuY29tgg5raW5na29uZ3Nh
LmNvbYIHcWJkLmNvbYIJemhpeXUuY29tghBxeXBlbmNpbG5ld3MuY29tggx3ZW5j
aGFuZy5jb22CDWdvdXlpbmdkYS5jb22CCnRwc2hvcC5jb22CEHVnc2hvcC5od2Rp
dC5jb22CCWRydXBhbC5pb4IGb2EuY29tghRvYS5hcGkucGVuY2lsbmV3cy5jboIH
bWFpbC5jboIJdHJhaW4uY29tgg9ic2IubGlhc2ljYS5jb22CEWFwaS5wZW5jaWxu
ZXdzLmNuggh6eXRxLmNvbYIQdWdzaG9wLmh3ZGl0LmNvbYIJZHJ1cGFsLmluMA0G
CSqGSIb3DQEBCwUAA4IBAQBFw+iT2VQh2hDAaBR1q86X/AGR2dvxOPO5YXYnQ/UR
9g7isYDc95c7Z6hIGgVLE1GW7t7qeHeQnuHondJ6FNjzckHE4HrjSiPvuvmrRf2q
gdH3dYr7fPffGo71FQJxOSJKwJr5sVaa7NtFEuKBxAp6c4zuNEDYEHYxSH5SaI+i
JPmzAoHFCNLqrnDQM/0dO23/p/PKpZiUugSBdT85BegWZ0eQbnxhUy9tATt3rh+q
hZ8mbdEVjaiuQEl82ZTeHEJqx/MSrJlwGqA1iuTtDzgVF0CMb9OOQt9bybh5/sNr
K5waNZsv/KJF96LDk73Ga20M/5W6jIIGR6bRP8NiyrL+
-----END CERTIFICATE-----
